; Function Attrs: mustprogress uwtable
define void @_ZN10open_spiel19DataLoggerJsonLinesC2ERKNSt7__cxx1112basic_stringIcSt11char_traitsIcESaIcEEES8_bS8_N4absl7debian24TimeE(ptr noundef nonnull align 8 dereferenceable(40) %0, ptr noundef nonnull align 8 dereferenceable(32) %1, ptr noundef nonnull align 8 dereferenceable(32) %2, i1 noundef zeroext %3, ptr noundef nonnull align 8 dereferenceable(32) %4, ptr nocapture noundef readonly byval(%"class.absl::debian2::Time") align 8 %5) unnamed_addr #3 align 2 personality ptr @__gxx_personality_v0 {
_ZN4absl7debian219str_format_internal18FormatSpecTemplateIJLNS0_23FormatConversionCharSetE4ELS3_4EEEC2EUa9enable_ifIXclL_ZNS1_15ValidFormatImplIJLS3_4ELS3_4EEEEbNS0_11string_viewEEfL0p_EEEPKc.exit:
  %6 = alloca [2 x %"class.absl::debian2::str_format_internal::FormatArgImpl"], align 8
  %7 = alloca %"class.std::__cxx11::basic_string", align 8
  store ptr getelementptr inbounds inrange(-16, 32) (i8, ptr @_ZTVN10open_spiel19DataLoggerJsonLinesE, i64 16), ptr %0, align 8
  %8 = getelementptr inbounds nuw i8, ptr %0, i64 8
  call void @llvm.lifetime.start.p0(i64 32, ptr nonnull %6)
  store ptr %1, ptr %6, align 8, !noalias !4
  %9 = getelementptr inbounds nuw i8, ptr %6, i64 8
  store ptr @_ZN4absl7debian219str_format_internal13FormatArgImpl8DispatchINSt7__cxx1112basic_stringIcSt11char_traitsIcESaIcEEEEEbNS2_4DataENS1_24FormatConversionSpecImplEPv, ptr %9, align 8, !noalias !4
  %10 = getelementptr inbounds i8, ptr %6, i64 16
  store ptr %2, ptr %10, align 8, !noalias !4
  %11 = getelementptr inbounds i8, ptr %6, i64 24
  store ptr @_ZN4absl7debian219str_format_internal13FormatArgImpl8DispatchINSt7__cxx1112basic_stringIcSt11char_traitsIcESaIcEEEEEbNS2_4DataENS1_24FormatConversionSpecImplEPv, ptr %11, align 8, !noalias !4
  call void @_ZN4absl7debian219str_format_internal10FormatPackB5cxx11ENS1_21UntypedFormatSpecImplENS0_4SpanIKNS1_13FormatArgImplEEE(ptr dead_on_unwind nonnull writable sret(%"class.std::__cxx11::basic_string") align 8 %7, ptr nonnull @.str, i64 11, ptr nonnull %6, i64 2)
  call void @llvm.lifetime.end.p0(i64 32, ptr nonnull %6)
  invoke void @_ZN10open_spiel4file4FileC1ERKNSt7__cxx1112basic_stringIcSt11char_traitsIcESaIcEEES9_(ptr noundef nonnull align 8 dereferenceable(8) %8, ptr noundef nonnull align 8 dereferenceable(32) %7, ptr noundef nonnull align 8 dereferenceable(32) %4)
          to label %12 unwind label %16

12:                                               ; preds = %_ZN4absl7debian219str_format_internal18FormatSpecTemplateIJLNS0_23FormatConversionCharSetE4ELS3_4EEEC2EUa9enable_ifIXclL_ZNS1_15ValidFormatImplIJLS3_4ELS3_4EEEEbNS0_11string_viewEEfL0p_EEEPKc.exit
  %13 = zext i1 %3 to i8
  call void @_ZNSt7__cxx1112basic_stringIcSt11char_traitsIcESaIcEED1Ev(ptr noundef nonnull align 8 dereferenceable(32) %7) #17
  %14 = getelementptr inbounds nuw i8, ptr %0, i64 16
  store i8 %13, ptr %14, align 8
  %15 = getelementptr inbounds nuw i8, ptr %0, i64 24
  call void @llvm.memcpy.p0.p0.i64(ptr noundef nonnull align 8 dereferenceable(16) %15, ptr noundef nonnull align 8 dereferenceable(16) %5, i64 16, i1 false)
  ret void

16:                                               ; preds = %_ZN4absl7debian219str_format_internal18FormatSpecTemplateIJLNS0_23FormatConversionCharSetE4ELS3_4EEEC2EUa9enable_ifIXclL_ZNS1_15ValidFormatImplIJLS3_4ELS3_4EEEEbNS0_11string_viewEEfL0p_EEEPKc.exit
  %17 = landingpad { ptr, i32 }
          cleanup
  call void @_ZNSt7__cxx1112basic_stringIcSt11char_traitsIcESaIcEED1Ev(ptr noundef nonnull align 8 dereferenceable(32) %7) #17
  resume { ptr, i32 } %17
}